target datalayout = "e-m:e-p270:32:32-p271:32:32-p272:64:64-i64:64-i128:128-f80:128-n8:16:32:64-S128"
target triple = "x86_64-pc-linux-gnu"

%struct.AVFilterPadParams = type { ptr }

@.str.4 = private unnamed_addr constant [5 x i8] c" \0A\09\0D\00", align 1
@.str.30 = private unnamed_addr constant [2 x i8] c"]\00", align 1
@.str.31 = private unnamed_addr constant [50 x i8] c"Bad (empty?) label found in the following: \22%s\22.\0A\00", align 1
@.str.32 = private unnamed_addr constant [46 x i8] c"Mismatched '[' found in the following: \22%s\22.\0A\00", align 1

; Function Attrs: nounwind uwtable
define internal void @pad_params_free(ptr noundef %0) #0 {
  %2 = alloca ptr, align 8
  %3 = alloca ptr, align 8
  %4 = alloca i32, align 4
  store ptr %0, ptr %2, align 8, !tbaa !129
  call void @llvm.lifetime.start.p0(i64 8, ptr %3) #7
  %5 = load ptr, ptr %2, align 8, !tbaa !129
  %6 = load ptr, ptr %5, align 8, !tbaa !99
  store ptr %6, ptr %3, align 8, !tbaa !99
  %7 = load ptr, ptr %3, align 8, !tbaa !99
  %8 = icmp ne ptr %7, null
  br i1 %8, label %10, label %9

9:                                                ; preds = %1
  store i32 1, ptr %4, align 4
  br label %14

10:                                               ; preds = %1
  %11 = load ptr, ptr %3, align 8, !tbaa !99
  %12 = getelementptr inbounds nuw %struct.AVFilterPadParams, ptr %11, i32 0, i32 0
  call void @av_freep(ptr noundef %12)
  %13 = load ptr, ptr %2, align 8, !tbaa !129
  call void @av_freep(ptr noundef %13)
  store i32 0, ptr %4, align 4
  br label %14

14:                                               ; preds = %10, %9
  call void @llvm.lifetime.end.p0(i64 8, ptr %3) #7
  %15 = load i32, ptr %4, align 4
  switch i32 %15, label %17 [
    i32 0, label %16
    i32 1, label %16
  ]

16:                                               ; preds = %14, %14
  ret void

17:                                               ; preds = %14
  unreachable
}

; Function Attrs: nounwind uwtable
define internal ptr @parse_link_name(ptr noundef %0, ptr noundef %1) #0 {
  %3 = alloca ptr, align 8
  %4 = alloca ptr, align 8
  %5 = alloca ptr, align 8
  %6 = alloca ptr, align 8
  %7 = alloca ptr, align 8
  %8 = alloca i32, align 4
  store ptr %0, ptr %4, align 8, !tbaa !70
  store ptr %1, ptr %5, align 8, !tbaa !46
  call void @llvm.lifetime.start.p0(i64 8, ptr %6) #7
  %9 = load ptr, ptr %4, align 8, !tbaa !70
  %10 = load ptr, ptr %9, align 8, !tbaa !21
  store ptr %10, ptr %6, align 8, !tbaa !21
  call void @llvm.lifetime.start.p0(i64 8, ptr %7) #7
  %11 = load ptr, ptr %4, align 8, !tbaa !70
  %12 = load ptr, ptr %11, align 8, !tbaa !21
  %13 = getelementptr inbounds nuw i8, ptr %12, i32 1
  store ptr %13, ptr %11, align 8, !tbaa !21
  %14 = load ptr, ptr %4, align 8, !tbaa !70
  %15 = call ptr @av_get_token(ptr noundef %14, ptr noundef @.str.30)
  store ptr %15, ptr %7, align 8, !tbaa !21
  %16 = load ptr, ptr %7, align 8, !tbaa !21
  %17 = icmp ne ptr %16, null
  br i1 %17, label %19, label %18

18:                                               ; preds = %2
  store ptr null, ptr %3, align 8
  store i32 1, ptr %8, align 4
  br label %42

19:                                               ; preds = %2
  %20 = load ptr, ptr %7, align 8, !tbaa !21
  %21 = getelementptr inbounds i8, ptr %20, i64 0
  %22 = load i8, ptr %21, align 1, !tbaa !38
  %23 = icmp ne i8 %22, 0
  br i1 %23, label %27, label %24

24:                                               ; preds = %19
  %25 = load ptr, ptr %5, align 8, !tbaa !46
  %26 = load ptr, ptr %6, align 8, !tbaa !21
  call void (ptr, i32, ptr, ...) @av_log(ptr noundef %25, i32 noundef 16, ptr noundef @.str.31, ptr noundef %26)
  br label %36

27:                                               ; preds = %19
  %28 = load ptr, ptr %4, align 8, !tbaa !70
  %29 = load ptr, ptr %28, align 8, !tbaa !21
  %30 = load i8, ptr %29, align 1, !tbaa !38
  %31 = sext i8 %30 to i32
  %32 = icmp ne i32 %31, 93
  br i1 %32, label %33, label %37

33:                                               ; preds = %27
  %34 = load ptr, ptr %5, align 8, !tbaa !46
  %35 = load ptr, ptr %6, align 8, !tbaa !21
  call void (ptr, i32, ptr, ...) @av_log(ptr noundef %34, i32 noundef 16, ptr noundef @.str.32, ptr noundef %35)
  br label %36

36:                                               ; preds = %33, %24
  call void @av_freep(ptr noundef %7)
  store ptr null, ptr %3, align 8
  store i32 1, ptr %8, align 4
  br label %42

37:                                               ; preds = %27
  %38 = load ptr, ptr %4, align 8, !tbaa !70
  %39 = load ptr, ptr %38, align 8, !tbaa !21
  %40 = getelementptr inbounds nuw i8, ptr %39, i32 1
  store ptr %40, ptr %38, align 8, !tbaa !21
  %41 = load ptr, ptr %7, align 8, !tbaa !21
  store ptr %41, ptr %3, align 8
  store i32 1, ptr %8, align 4
  br label %42

42:                                               ; preds = %37, %36, %18
  call void @llvm.lifetime.end.p0(i64 8, ptr %7) #7
  call void @llvm.lifetime.end.p0(i64 8, ptr %6) #7
  %43 = load ptr, ptr %3, align 8
  ret ptr %43
}

; Function Attrs: nounwind uwtable
define internal i32 @linklabels_parse(ptr noundef %0, ptr noundef %1, ptr noundef %2, ptr noundef %3) #0 {
  %5 = alloca i32, align 4
  %6 = alloca ptr, align 8
  %7 = alloca ptr, align 8
  %8 = alloca ptr, align 8
  %9 = alloca ptr, align 8
  %10 = alloca ptr, align 8
  %11 = alloca i32, align 4
  %12 = alloca i32, align 4
  %13 = alloca ptr, align 8
  %14 = alloca ptr, align 8
  %15 = alloca i32, align 4
  %16 = alloca i32, align 4
  store ptr %0, ptr %6, align 8, !tbaa !46
  store ptr %1, ptr %7, align 8, !tbaa !70
  store ptr %2, ptr %8, align 8, !tbaa !124
  store ptr %3, ptr %9, align 8, !tbaa !127
  call void @llvm.lifetime.start.p0(i64 8, ptr %10) #7
  store ptr null, ptr %10, align 8, !tbaa !129
  call void @llvm.lifetime.start.p0(i64 4, ptr %11) #7
  store i32 0, ptr %11, align 4, !tbaa !22
  call void @llvm.lifetime.start.p0(i64 4, ptr %12) #7
  br label %17

17:                                               ; preds = %53, %4
  %18 = load ptr, ptr %7, align 8, !tbaa !70
  %19 = load ptr, ptr %18, align 8, !tbaa !21
  %20 = load i8, ptr %19, align 1, !tbaa !38
  %21 = sext i8 %20 to i32
  %22 = icmp eq i32 %21, 91
  br i1 %22, label %23, label %54

23:                                               ; preds = %17
  call void @llvm.lifetime.start.p0(i64 8, ptr %13) #7
  call void @llvm.lifetime.start.p0(i64 8, ptr %14) #7
  %24 = load ptr, ptr %7, align 8, !tbaa !70
  %25 = load ptr, ptr %6, align 8, !tbaa !46
  %26 = call ptr @parse_link_name(ptr noundef %24, ptr noundef %25)
  store ptr %26, ptr %13, align 8, !tbaa !21
  %27 = load ptr, ptr %13, align 8, !tbaa !21
  %28 = icmp ne ptr %27, null
  br i1 %28, label %30, label %29

29:                                               ; preds = %23
  store i32 -22, ptr %12, align 4, !tbaa !22
  store i32 4, ptr %15, align 4
  br label %51

30:                                               ; preds = %23
  %31 = call noalias ptr @av_mallocz(i64 noundef 8)
  store ptr %31, ptr %14, align 8, !tbaa !99
  %32 = load ptr, ptr %14, align 8, !tbaa !99
  %33 = icmp ne ptr %32, null
  br i1 %33, label %35, label %34

34:                                               ; preds = %30
  call void @av_freep(ptr noundef %13)
  store i32 -12, ptr %12, align 4, !tbaa !22
  store i32 4, ptr %15, align 4
  br label %51

35:                                               ; preds = %30
  %36 = load ptr, ptr %13, align 8, !tbaa !21
  %37 = load ptr, ptr %14, align 8, !tbaa !99
  %38 = getelementptr inbounds nuw %struct.AVFilterPadParams, ptr %37, i32 0, i32 0
  store ptr %36, ptr %38, align 8, !tbaa !101
  %39 = load ptr, ptr %14, align 8, !tbaa !99
  %40 = call i32 @av_dynarray_add_nofree(ptr noundef %10, ptr noundef %11, ptr noundef %39)
  store i32 %40, ptr %12, align 4, !tbaa !22
  %41 = load i32, ptr %12, align 4, !tbaa !22
  %42 = icmp slt i32 %41, 0
  br i1 %42, label %43, label %44

43:                                               ; preds = %35
  call void @pad_params_free(ptr noundef %14)
  store i32 4, ptr %15, align 4
  br label %51

44:                                               ; preds = %35
  %45 = load ptr, ptr %7, align 8, !tbaa !70
  %46 = load ptr, ptr %45, align 8, !tbaa !21
  %47 = call i64 @strspn(ptr noundef %46, ptr noundef @.str.4) #8
  %48 = load ptr, ptr %7, align 8, !tbaa !70
  %49 = load ptr, ptr %48, align 8, !tbaa !21
  %50 = getelementptr inbounds nuw i8, ptr %49, i64 %47
  store ptr %50, ptr %48, align 8, !tbaa !21
  store i32 0, ptr %15, align 4
  br label %51

51:                                               ; preds = %43, %34, %29, %44
  call void @llvm.lifetime.end.p0(i64 8, ptr %14) #7
  call void @llvm.lifetime.end.p0(i64 8, ptr %13) #7
  %52 = load i32, ptr %15, align 4
  switch i32 %52, label %75 [
    i32 0, label %53
    i32 4, label %59
  ]

53:                                               ; preds = %51
  br label %17, !llvm.loop !130

54:                                               ; preds = %17
  %55 = load ptr, ptr %10, align 8, !tbaa !129
  %56 = load ptr, ptr %8, align 8, !tbaa !124
  store ptr %55, ptr %56, align 8, !tbaa !129
  %57 = load i32, ptr %11, align 4, !tbaa !22
  %58 = load ptr, ptr %9, align 8, !tbaa !127
  store i32 %57, ptr %58, align 4, !tbaa !22
  store i32 0, ptr %5, align 4
  store i32 1, ptr %15, align 4
  br label %75

59:                                               ; preds = %51
  call void @llvm.lifetime.start.p0(i64 4, ptr %16) #7
  store i32 0, ptr %16, align 4, !tbaa !22
  br label %60

60:                                               ; preds = %70, %59
  %61 = load i32, ptr %16, align 4, !tbaa !22
  %62 = load i32, ptr %11, align 4, !tbaa !22
  %63 = icmp ult i32 %61, %62
  br i1 %63, label %65, label %64

64:                                               ; preds = %60
  store i32 5, ptr %15, align 4
  call void @llvm.lifetime.end.p0(i64 4, ptr %16) #7
  br label %73

65:                                               ; preds = %60
  %66 = load ptr, ptr %10, align 8, !tbaa !129
  %67 = load i32, ptr %16, align 4, !tbaa !22
  %68 = zext i32 %67 to i64
  %69 = getelementptr inbounds nuw ptr, ptr %66, i64 %68
  call void @pad_params_free(ptr noundef %69)
  br label %70

70:                                               ; preds = %65
  %71 = load i32, ptr %16, align 4, !tbaa !22
  %72 = add i32 %71, 1
  store i32 %72, ptr %16, align 4, !tbaa !22
  br label %60, !llvm.loop !131

73:                                               ; preds = %64
  call void @av_freep(ptr noundef %10)
  %74 = load i32, ptr %12, align 4, !tbaa !22
  store i32 %74, ptr %5, align 4
  store i32 1, ptr %15, align 4
  br label %75

75:                                               ; preds = %73, %54, %51
  call void @llvm.lifetime.end.p0(i64 4, ptr %12) #7
  call void @llvm.lifetime.end.p0(i64 4, ptr %11) #7
  call void @llvm.lifetime.end.p0(i64 8, ptr %10) #7
  %76 = load i32, ptr %5, align 4
  ret i32 %76
}