; Function Attrs: nounwind uwtable
define internal fastcc i32 @linklabels_parse(ptr noundef %0, ptr noundef nonnull %1, ptr noundef writeonly captures(none) %2, ptr noundef writeonly captures(none) %3) unnamed_addr #0 {
  %5 = alloca ptr, align 8
  %6 = alloca ptr, align 8
  %7 = alloca i32, align 4
  %8 = alloca ptr, align 8
  %9 = alloca ptr, align 8
  call void @llvm.lifetime.start.p0(i64 8, ptr nonnull %6) #7
  store ptr null, ptr %6, align 8, !tbaa !102
  call void @llvm.lifetime.start.p0(i64 4, ptr nonnull %7) #7
  store i32 0, ptr %7, align 4, !tbaa !26
  %10 = load ptr, ptr %1, align 8, !tbaa !32
  %11 = load i8, ptr %10, align 1, !tbaa !33
  %12 = icmp eq i8 %11, 91
  br i1 %12, label %.lr.ph41, label %._crit_edge42

.lr.ph41:                                         ; preds = %4, %pad_params_free.exit
  %13 = phi ptr [ %35, %pad_params_free.exit ], [ %10, %4 ]
  call void @llvm.lifetime.start.p0(i64 8, ptr nonnull %8) #7
  call void @llvm.lifetime.start.p0(i64 8, ptr nonnull %9) #7
  call void @llvm.lifetime.start.p0(i64 8, ptr nonnull %5) #7
  %14 = getelementptr inbounds nuw i8, ptr %13, i64 1
  store ptr %14, ptr %1, align 8, !tbaa !32
  %15 = call ptr @av_get_token(ptr noundef nonnull %1, ptr noundef nonnull @.str.30) #7
  store ptr %15, ptr %5, align 8, !tbaa !32
  %.not.i = icmp eq ptr %15, null
  br i1 %.not.i, label %parse_link_name.exit.thread, label %16

16:                                               ; preds = %.lr.ph41
  %17 = load i8, ptr %15, align 1, !tbaa !33
  %.not11.i = icmp eq i8 %17, 0
  br i1 %.not11.i, label %21, label %18

18:                                               ; preds = %16
  %19 = load ptr, ptr %1, align 8, !tbaa !32
  %20 = load i8, ptr %19, align 1, !tbaa !33
  %.not12.i = icmp eq i8 %20, 93
  br i1 %.not12.i, label %22, label %21

21:                                               ; preds = %18, %16
  %.str.32.sink.i = phi ptr [ @.str.31, %16 ], [ @.str.32, %18 ]
  call void (ptr, i32, ptr, ...) @av_log(ptr noundef %0, i32 noundef 16, ptr noundef nonnull %.str.32.sink.i, ptr noundef nonnull %13) #7
  call void @av_freep(ptr noundef nonnull %5) #7
  br label %parse_link_name.exit.thread

parse_link_name.exit.thread:                      ; preds = %.lr.ph41, %21
  call void @llvm.lifetime.end.p0(i64 8, ptr nonnull %5) #7
  br label %.preheader

22:                                               ; preds = %18
  %23 = getelementptr inbounds nuw i8, ptr %19, i64 1
  store ptr %23, ptr %1, align 8, !tbaa !32
  call void @llvm.lifetime.end.p0(i64 8, ptr nonnull %5) #7
  store ptr %15, ptr %8, align 8, !tbaa !32
  %24 = call noalias ptr @av_mallocz(i64 noundef 8) #7
  store ptr %24, ptr %9, align 8, !tbaa !74
  %.not18 = icmp eq ptr %24, null
  br i1 %.not18, label %25, label %26

25:                                               ; preds = %22
  call void @av_freep(ptr noundef nonnull %8) #7
  br label %.preheader

26:                                               ; preds = %22
  %27 = load ptr, ptr %8, align 8, !tbaa !32
  store ptr %27, ptr %24, align 8, !tbaa !96
  %28 = call i32 @av_dynarray_add_nofree(ptr noundef nonnull %6, ptr noundef nonnull %7, ptr noundef nonnull %24) #7
  %29 = icmp slt i32 %28, 0
  br i1 %29, label %30, label %pad_params_free.exit

30:                                               ; preds = %26
  %31 = load ptr, ptr %9, align 8, !tbaa !74
  %.not.i20 = icmp eq ptr %31, null
  br i1 %.not.i20, label %.preheader, label %32

32:                                               ; preds = %30
  call void @av_freep(ptr noundef nonnull %31) #7
  call void @av_freep(ptr noundef nonnull %9) #7
  br label %.preheader

pad_params_free.exit:                             ; preds = %26
  %33 = load ptr, ptr %1, align 8, !tbaa !32
  %34 = call i64 @strspn(ptr noundef %33, ptr noundef nonnull @.str.4) #8
  %35 = getelementptr inbounds nuw i8, ptr %33, i64 %34
  store ptr %35, ptr %1, align 8, !tbaa !32
  call void @llvm.lifetime.end.p0(i64 8, ptr nonnull %9) #7
  call void @llvm.lifetime.end.p0(i64 8, ptr nonnull %8) #7
  %36 = load i8, ptr %35, align 1, !tbaa !33
  %37 = icmp eq i8 %36, 91
  br i1 %37, label %.lr.ph41, label %._crit_edge42

.preheader:                                       ; preds = %25, %parse_link_name.exit.thread, %30, %32
  %.014.ph = phi i32 [ %28, %32 ], [ %28, %30 ], [ -22, %parse_link_name.exit.thread ], [ -12, %25 ]
  call void @llvm.lifetime.end.p0(i64 8, ptr nonnull %9) #7
  call void @llvm.lifetime.end.p0(i64 8, ptr nonnull %8) #7
  %38 = load i32, ptr %7, align 4, !tbaa !26
  %.not = icmp eq i32 %38, 0
  br i1 %.not, label %._crit_edge, label %.lr.ph

._crit_edge42:                                    ; preds = %pad_params_free.exit, %4
  %39 = load ptr, ptr %6, align 8, !tbaa !102
  store ptr %39, ptr %2, align 8, !tbaa !102
  %40 = load i32, ptr %7, align 4, !tbaa !26
  store i32 %40, ptr %3, align 4, !tbaa !26
  br label %49

._crit_edge:                                      ; preds = %pad_params_free.exit22, %.preheader
  call void @av_freep(ptr noundef nonnull %6) #7
  br label %49

.lr.ph:                                           ; preds = %.preheader, %pad_params_free.exit22
  %41 = phi i32 [ %46, %pad_params_free.exit22 ], [ %38, %.preheader ]
  %indvars.iv = phi i64 [ %indvars.iv.next, %pad_params_free.exit22 ], [ 0, %.preheader ]
  %42 = load ptr, ptr %6, align 8, !tbaa !102
  %43 = getelementptr inbounds nuw ptr, ptr %42, i64 %indvars.iv
  %44 = load ptr, ptr %43, align 8, !tbaa !74
  %.not.i21 = icmp eq ptr %44, null
  br i1 %.not.i21, label %pad_params_free.exit22, label %45

45:                                               ; preds = %.lr.ph
  call void @av_freep(ptr noundef nonnull %44) #7
  call void @av_freep(ptr noundef nonnull %43) #7
  %.pre = load i32, ptr %7, align 4, !tbaa !26
  br label %pad_params_free.exit22

pad_params_free.exit22:                           ; preds = %.lr.ph, %45
  %46 = phi i32 [ %41, %.lr.ph ], [ %.pre, %45 ]
  %indvars.iv.next = add nuw nsw i64 %indvars.iv, 1
  %47 = zext i32 %46 to i64
  %48 = icmp samesign ult i64 %indvars.iv.next, %47
  br i1 %48, label %.lr.ph, label %._crit_edge, !llvm.loop !116

49:                                               ; preds = %._crit_edge, %._crit_edge42
  %.015 = phi i32 [ %.014.ph, %._crit_edge ], [ 0, %._crit_edge42 ]
  call void @llvm.lifetime.end.p0(i64 4, ptr nonnull %7) #7
  call void @llvm.lifetime.end.p0(i64 8, ptr nonnull %6) #7
  ret i32 %.015
}